target datalayout = "e-m:e-p270:32:32-p271:32:32-p272:64:64-i64:64-i128:128-f80:128-n8:16:32:64-S128"
target triple = "x86_64-pc-linux-gnu"

%struct.Aig_Man_t_ = type { ptr, ptr, ptr, ptr, ptr, ptr, ptr, %struct.Aig_Obj_t_, i32, i32, i32, i32, i32, i32, [7 x i32], i32, ptr, i32, ptr, i32, ptr, i32, i32, i32, ptr, i32, i32, i32, i32, i32, ptr, ptr, i32, ptr, ptr, i32, ptr, ptr, i32, i32, i32, ptr, ptr, ptr, ptr, ptr, ptr, ptr, ptr, ptr, ptr, ptr, ptr, ptr, ptr, i32, ptr, ptr, ptr, ptr, i32, i64, i64, i64, ptr, ptr }
%struct.Aig_Obj_t_ = type { %union.anon, ptr, ptr, i64, i32, i32, %union.anon.0 }
%union.anon = type { ptr }
%union.anon.0 = type { ptr }
%struct.timespec = type { i64, i64 }

@.str = private unnamed_addr constant [54 x i8] c"%2d : And = %6d. Reg = %5d. Unret = %5d. Move = %6d. \00", align 1
@.str.1 = private unnamed_addr constant [5 x i8] c"%s =\00", align 1
@.str.2 = private unnamed_addr constant [5 x i8] c"Time\00", align 1
@.str.3 = private unnamed_addr constant [11 x i8] c"%9.2f sec\0A\00", align 1
@.str.4 = private unnamed_addr constant [22 x i8] c"Register sharing time\00", align 1

; Function Attrs: inlinehint nounwind uwtable
define internal i32 @Aig_ManRegNum(ptr noundef %0) #2 {
  %2 = alloca ptr, align 8
  store ptr %0, ptr %2, align 8, !tbaa !3
  %3 = load ptr, ptr %2, align 8, !tbaa !3
  %4 = getelementptr inbounds nuw %struct.Aig_Man_t_, ptr %3, i32 0, i32 8
  %5 = load i32, ptr %4, align 8, !tbaa !43
  ret i32 %5
}

; Function Attrs: inlinehint nounwind uwtable
define internal i32 @Aig_ManNodeNum(ptr noundef %0) #2 {
  %2 = alloca ptr, align 8
  store ptr %0, ptr %2, align 8, !tbaa !3
  %3 = load ptr, ptr %2, align 8, !tbaa !3
  %4 = getelementptr inbounds nuw %struct.Aig_Man_t_, ptr %3, i32 0, i32 14
  %5 = getelementptr inbounds [7 x i32], ptr %4, i64 0, i64 5
  %6 = load i32, ptr %5, align 4, !tbaa !8
  %7 = load ptr, ptr %2, align 8, !tbaa !3
  %8 = getelementptr inbounds nuw %struct.Aig_Man_t_, ptr %7, i32 0, i32 14
  %9 = getelementptr inbounds [7 x i32], ptr %8, i64 0, i64 6
  %10 = load i32, ptr %9, align 8, !tbaa !8
  %11 = add nsw i32 %6, %10
  ret i32 %11
}

; Function Attrs: inlinehint nounwind uwtable
define internal i64 @Abc_Clock() #2 {
  %1 = alloca i64, align 8
  %2 = alloca %struct.timespec, align 8
  %3 = alloca i32, align 4
  %4 = alloca i64, align 8
  call void @llvm.lifetime.start.p0(i64 16, ptr %2) #9
  %5 = call i32 @clock_gettime(i32 noundef 1, ptr noundef %2) #9
  %6 = icmp slt i32 %5, 0
  br i1 %6, label %7, label %8

7:                                                ; preds = %0
  store i64 -1, ptr %1, align 8
  store i32 1, ptr %3, align 4
  br label %19

8:                                                ; preds = %0
  call void @llvm.lifetime.start.p0(i64 8, ptr %4) #9
  %9 = getelementptr inbounds nuw %struct.timespec, ptr %2, i32 0, i32 0
  %10 = load i64, ptr %9, align 8, !tbaa !59
  %11 = mul nsw i64 %10, 1000000
  store i64 %11, ptr %4, align 8, !tbaa !53
  %12 = getelementptr inbounds nuw %struct.timespec, ptr %2, i32 0, i32 1
  %13 = load i64, ptr %12, align 8, !tbaa !61
  %14 = mul nsw i64 %13, 1000000
  %15 = sdiv i64 %14, 1000000000
  %16 = load i64, ptr %4, align 8, !tbaa !53
  %17 = add nsw i64 %16, %15
  store i64 %17, ptr %4, align 8, !tbaa !53
  %18 = load i64, ptr %4, align 8, !tbaa !53
  store i64 %18, ptr %1, align 8
  store i32 1, ptr %3, align 4
  call void @llvm.lifetime.end.p0(i64 8, ptr %4) #9
  br label %19

19:                                               ; preds = %8, %7
  call void @llvm.lifetime.end.p0(i64 16, ptr %2) #9
  %20 = load i64, ptr %1, align 8
  ret i64 %20
}

; Function Attrs: nounwind uwtable
define ptr @Saig_ManRetimeForward(ptr noundef %0, i32 noundef %1, i32 noundef %2) #0 {
  %4 = alloca ptr, align 8
  %5 = alloca i32, align 4
  %6 = alloca i32, align 4
  %7 = alloca ptr, align 8
  %8 = alloca ptr, align 8
  %9 = alloca i32, align 4
  %10 = alloca i32, align 4
  %11 = alloca i32, align 4
  %12 = alloca i64, align 8
  store ptr %0, ptr %4, align 8, !tbaa !3
  store i32 %1, ptr %5, align 4, !tbaa !8
  store i32 %2, ptr %6, align 4, !tbaa !8
  call void @llvm.lifetime.start.p0(i64 8, ptr %7) #9
  call void @llvm.lifetime.start.p0(i64 8, ptr %8) #9
  call void @llvm.lifetime.start.p0(i64 4, ptr %9) #9
  call void @llvm.lifetime.start.p0(i64 4, ptr %10) #9
  call void @llvm.lifetime.start.p0(i64 4, ptr %11) #9
  store i32 1, ptr %11, align 4, !tbaa !8
  call void @llvm.lifetime.start.p0(i64 8, ptr %12) #9
  %13 = load ptr, ptr %4, align 8, !tbaa !3
  store ptr %13, ptr %7, align 8, !tbaa !3
  store i32 0, ptr %9, align 4, !tbaa !8
  br label %14

14:                                               ; preds = %52, %3
  %15 = load i32, ptr %9, align 4, !tbaa !8
  %16 = load i32, ptr %5, align 4, !tbaa !8
  %17 = icmp slt i32 %15, %16
  br i1 %17, label %18, label %21

18:                                               ; preds = %14
  %19 = load i32, ptr %11, align 4, !tbaa !8
  %20 = icmp sgt i32 %19, 0
  br label %21

21:                                               ; preds = %18, %14
  %22 = phi i1 [ false, %14 ], [ %20, %18 ]
  br i1 %22, label %23, label %55

23:                                               ; preds = %21
  %24 = call i64 @Abc_Clock()
  store i64 %24, ptr %12, align 8, !tbaa !53
  %25 = load ptr, ptr %7, align 8, !tbaa !3
  store ptr %25, ptr %8, align 8, !tbaa !3
  %26 = call ptr @Saig_ManRetimeForwardOne(ptr noundef %25, ptr noundef %10, ptr noundef %11)
  store ptr %26, ptr %7, align 8, !tbaa !3
  %27 = load i32, ptr %6, align 4, !tbaa !8
  %28 = icmp ne i32 %27, 0
  br i1 %28, label %29, label %45

29:                                               ; preds = %23
  %30 = load i32, ptr %9, align 4, !tbaa !8
  %31 = add nsw i32 %30, 1
  %32 = load ptr, ptr %8, align 8, !tbaa !3
  %33 = call i32 @Aig_ManNodeNum(ptr noundef %32)
  %34 = load ptr, ptr %8, align 8, !tbaa !3
  %35 = call i32 @Aig_ManRegNum(ptr noundef %34)
  %36 = load i32, ptr %10, align 4, !tbaa !8
  %37 = load i32, ptr %11, align 4, !tbaa !8
  %38 = call i32 (ptr, ...) @printf(ptr noundef @.str, i32 noundef %31, i32 noundef %33, i32 noundef %35, i32 noundef %36, i32 noundef %37)
  call void (i32, ptr, ...) @Abc_Print(i32 noundef 1, ptr noundef @.str.1, ptr noundef @.str.2)
  %39 = call i64 @Abc_Clock()
  %40 = load i64, ptr %12, align 8, !tbaa !53
  %41 = sub nsw i64 %39, %40
  %42 = sitofp i64 %41 to double
  %43 = fmul double 1.000000e+00, %42
  %44 = fdiv double %43, 1.000000e+06
  call void (i32, ptr, ...) @Abc_Print(i32 noundef 1, ptr noundef @.str.3, double noundef %44)
  br label %45

45:                                               ; preds = %29, %23
  %46 = load ptr, ptr %8, align 8, !tbaa !3
  %47 = load ptr, ptr %4, align 8, !tbaa !3
  %48 = icmp ne ptr %46, %47
  br i1 %48, label %49, label %51

49:                                               ; preds = %45
  %50 = load ptr, ptr %8, align 8, !tbaa !3
  call void @Aig_ManStop(ptr noundef %50)
  br label %51

51:                                               ; preds = %49, %45
  br label %52

52:                                               ; preds = %51
  %53 = load i32, ptr %9, align 4, !tbaa !8
  %54 = add nsw i32 %53, 1
  store i32 %54, ptr %9, align 4, !tbaa !8
  br label %14, !llvm.loop !54

55:                                               ; preds = %21
  %56 = call i64 @Abc_Clock()
  store i64 %56, ptr %12, align 8, !tbaa !53
  %57 = load ptr, ptr %7, align 8, !tbaa !3
  %58 = load i32, ptr %6, align 4, !tbaa !8
  %59 = call ptr @Aig_ManReduceLaches(ptr noundef %57, i32 noundef %58)
  store ptr %59, ptr %7, align 8, !tbaa !3
  %60 = load i32, ptr %6, align 4, !tbaa !8
  %61 = icmp ne i32 %60, 0
  br i1 %61, label %62, label %69

62:                                               ; preds = %55
  call void (i32, ptr, ...) @Abc_Print(i32 noundef 1, ptr noundef @.str.1, ptr noundef @.str.4)
  %63 = call i64 @Abc_Clock()
  %64 = load i64, ptr %12, align 8, !tbaa !53
  %65 = sub nsw i64 %63, %64
  %66 = sitofp i64 %65 to double
  %67 = fmul double 1.000000e+00, %66
  %68 = fdiv double %67, 1.000000e+06
  call void (i32, ptr, ...) @Abc_Print(i32 noundef 1, ptr noundef @.str.3, double noundef %68)
  br label %69

69:                                               ; preds = %62, %55
  %70 = load ptr, ptr %7, align 8, !tbaa !3
  call void @llvm.lifetime.end.p0(i64 8, ptr %12) #9
  call void @llvm.lifetime.end.p0(i64 4, ptr %11) #9
  call void @llvm.lifetime.end.p0(i64 4, ptr %10) #9
  call void @llvm.lifetime.end.p0(i64 4, ptr %9) #9
  call void @llvm.lifetime.end.p0(i64 8, ptr %8) #9
  call void @llvm.lifetime.end.p0(i64 8, ptr %7) #9
  ret ptr %70
}