; Function Attrs: nounwind uwtable
define ptr @Saig_ManRetimeForward(ptr noundef %0, i32 noundef %1, i32 noundef %2) local_unnamed_addr #4 {
  %4 = alloca %struct.timespec, align 8
  %5 = alloca %struct.timespec, align 8
  %6 = alloca %struct.timespec, align 8
  %7 = alloca %struct.timespec, align 8
  %8 = alloca i32, align 4
  %9 = alloca i32, align 4
  call void @llvm.lifetime.start.p0(i64 4, ptr nonnull %8) #14
  call void @llvm.lifetime.start.p0(i64 4, ptr nonnull %9) #14
  store i32 1, ptr %9, align 4, !tbaa !23
  %10 = icmp sgt i32 %1, 0
  br i1 %10, label %.lr.ph, label %._crit_edge

.lr.ph:                                           ; preds = %3
  %11 = getelementptr inbounds nuw i8, ptr %7, i64 8
  %.not18 = icmp eq i32 %2, 0
  %12 = getelementptr inbounds nuw i8, ptr %6, i64 8
  br i1 %.not18, label %.lr.ph.split.us, label %.lr.ph.split

.lr.ph.split.us:                                  ; preds = %.lr.ph, %16
  %.034.us = phi i32 [ %17, %16 ], [ 0, %.lr.ph ]
  %.01733.us = phi ptr [ %14, %16 ], [ %0, %.lr.ph ]
  call void @llvm.lifetime.start.p0(i64 16, ptr nonnull %7) #14
  %13 = call i32 @clock_gettime(i32 noundef 1, ptr noundef nonnull %7) #14
  call void @llvm.lifetime.end.p0(i64 16, ptr nonnull %7) #14
  %14 = call ptr @Saig_ManRetimeForwardOne(ptr noundef %.01733.us, ptr noundef nonnull %8, ptr noundef nonnull %9)
  %.not19.us = icmp eq ptr %.01733.us, %0
  br i1 %.not19.us, label %16, label %15

15:                                               ; preds = %.lr.ph.split.us
  call void @Aig_ManStop(ptr noundef %.01733.us) #14
  br label %16

16:                                               ; preds = %15, %.lr.ph.split.us
  %17 = add nuw nsw i32 %.034.us, 1
  %18 = icmp slt i32 %17, %1
  %19 = load i32, ptr %9, align 4
  %20 = icmp sgt i32 %19, 0
  %21 = select i1 %18, i1 %20, i1 false
  br i1 %21, label %.lr.ph.split.us, label %._crit_edge, !llvm.loop !50

.lr.ph.split:                                     ; preds = %.lr.ph, %48
  %.034 = phi i32 [ %28, %48 ], [ 0, %.lr.ph ]
  %.01733 = phi ptr [ %27, %48 ], [ %0, %.lr.ph ]
  call void @llvm.lifetime.start.p0(i64 16, ptr nonnull %7) #14
  %22 = call i32 @clock_gettime(i32 noundef 1, ptr noundef nonnull %7) #14
  %23 = icmp slt i32 %22, 0
  br i1 %23, label %Abc_Clock.exit, label %24

24:                                               ; preds = %.lr.ph.split
  %25 = load i64, ptr %7, align 8, !tbaa !51
  %.neg31 = mul i64 %25, -1000000
  %26 = load i64, ptr %11, align 8, !tbaa !53
  %.neg30 = sdiv i64 %26, -1000
  %.neg32 = add i64 %.neg30, %.neg31
  br label %Abc_Clock.exit

Abc_Clock.exit:                                   ; preds = %.lr.ph.split, %24
  %.0.i.neg = phi i64 [ %.neg32, %24 ], [ 1, %.lr.ph.split ]
  call void @llvm.lifetime.end.p0(i64 16, ptr nonnull %7) #14
  %27 = call ptr @Saig_ManRetimeForwardOne(ptr noundef %.01733, ptr noundef nonnull %8, ptr noundef nonnull %9)
  %28 = add nuw nsw i32 %.034, 1
  %29 = getelementptr i8, ptr %.01733, i64 148
  %.017.val = load i32, ptr %29, align 4, !tbaa !23
  %30 = getelementptr i8, ptr %.01733, i64 152
  %.017.val20 = load i32, ptr %30, align 8, !tbaa !23
  %31 = add nsw i32 %.017.val20, %.017.val
  %32 = getelementptr i8, ptr %.01733, i64 104
  %.017.val21 = load i32, ptr %32, align 8, !tbaa !36
  %33 = load i32, ptr %8, align 4, !tbaa !23
  %34 = load i32, ptr %9, align 4, !tbaa !23
  %35 = call i32 (ptr, ...) @printf(ptr noundef nonnull dereferenceable(1) @.str, i32 noundef %28, i32 noundef %31, i32 noundef %.017.val21, i32 noundef %33, i32 noundef %34)
  call void (i32, ptr, ...) @Abc_Print(i32 poison, ptr noundef nonnull @.str.1, ptr noundef nonnull @.str.2)
  call void @llvm.lifetime.start.p0(i64 16, ptr nonnull %6) #14
  %36 = call i32 @clock_gettime(i32 noundef 1, ptr noundef nonnull %6) #14
  %37 = icmp slt i32 %36, 0
  br i1 %37, label %Abc_Clock.exit23, label %38

38:                                               ; preds = %Abc_Clock.exit
  %39 = load i64, ptr %6, align 8, !tbaa !51
  %40 = mul nsw i64 %39, 1000000
  %41 = load i64, ptr %12, align 8, !tbaa !53
  %42 = sdiv i64 %41, 1000
  %43 = add nsw i64 %42, %40
  br label %Abc_Clock.exit23

Abc_Clock.exit23:                                 ; preds = %Abc_Clock.exit, %38
  %.0.i22 = phi i64 [ %43, %38 ], [ -1, %Abc_Clock.exit ]
  call void @llvm.lifetime.end.p0(i64 16, ptr nonnull %6) #14
  %44 = add i64 %.0.i22, %.0.i.neg
  %45 = sitofp i64 %44 to double
  %46 = fdiv double %45, 1.000000e+06
  call void (i32, ptr, ...) @Abc_Print(i32 poison, ptr noundef nonnull @.str.3, double noundef %46)
  %.not19 = icmp eq ptr %.01733, %0
  br i1 %.not19, label %48, label %47

47:                                               ; preds = %Abc_Clock.exit23
  call void @Aig_ManStop(ptr noundef nonnull %.01733) #14
  br label %48

48:                                               ; preds = %Abc_Clock.exit23, %47
  %49 = icmp slt i32 %28, %1
  %50 = icmp sgt i32 %34, 0
  %51 = and i1 %49, %50
  br i1 %51, label %.lr.ph.split, label %._crit_edge, !llvm.loop !50

._crit_edge:                                      ; preds = %48, %16, %3
  %.017.lcssa = phi ptr [ %0, %3 ], [ %14, %16 ], [ %27, %48 ]
  call void @llvm.lifetime.start.p0(i64 16, ptr nonnull %5) #14
  %52 = call i32 @clock_gettime(i32 noundef 1, ptr noundef nonnull %5) #14
  %53 = icmp slt i32 %52, 0
  br i1 %53, label %Abc_Clock.exit25, label %54

54:                                               ; preds = %._crit_edge
  %55 = load i64, ptr %5, align 8, !tbaa !51
  %.neg28 = mul i64 %55, -1000000
  %56 = getelementptr inbounds nuw i8, ptr %5, i64 8
  %57 = load i64, ptr %56, align 8, !tbaa !53
  %.neg = sdiv i64 %57, -1000
  %.neg29 = add i64 %.neg, %.neg28
  br label %Abc_Clock.exit25

Abc_Clock.exit25:                                 ; preds = %._crit_edge, %54
  %.0.i24.neg = phi i64 [ %.neg29, %54 ], [ 1, %._crit_edge ]
  call void @llvm.lifetime.end.p0(i64 16, ptr nonnull %5) #14
  %58 = call ptr @Aig_ManReduceLaches(ptr noundef %.017.lcssa, i32 noundef %2) #14
  %.not = icmp eq i32 %2, 0
  br i1 %.not, label %72, label %59

59:                                               ; preds = %Abc_Clock.exit25
  call void (i32, ptr, ...) @Abc_Print(i32 poison, ptr noundef nonnull @.str.1, ptr noundef nonnull @.str.4)
  call void @llvm.lifetime.start.p0(i64 16, ptr nonnull %4) #14
  %60 = call i32 @clock_gettime(i32 noundef 1, ptr noundef nonnull %4) #14
  %61 = icmp slt i32 %60, 0
  br i1 %61, label %Abc_Clock.exit27, label %62

62:                                               ; preds = %59
  %63 = load i64, ptr %4, align 8, !tbaa !51
  %64 = mul nsw i64 %63, 1000000
  %65 = getelementptr inbounds nuw i8, ptr %4, i64 8
  %66 = load i64, ptr %65, align 8, !tbaa !53
  %67 = sdiv i64 %66, 1000
  %68 = add nsw i64 %67, %64
  br label %Abc_Clock.exit27

Abc_Clock.exit27:                                 ; preds = %59, %62
  %.0.i26 = phi i64 [ %68, %62 ], [ -1, %59 ]
  call void @llvm.lifetime.end.p0(i64 16, ptr nonnull %4) #14
  %69 = add i64 %.0.i26, %.0.i24.neg
  %70 = sitofp i64 %69 to double
  %71 = fdiv double %70, 1.000000e+06
  call void (i32, ptr, ...) @Abc_Print(i32 poison, ptr noundef nonnull @.str.3, double noundef %71)
  br label %72

72:                                               ; preds = %Abc_Clock.exit27, %Abc_Clock.exit25
  call void @llvm.lifetime.end.p0(i64 4, ptr nonnull %9) #14
  call void @llvm.lifetime.end.p0(i64 4, ptr nonnull %8) #14
  ret ptr %58
}